; ModuleID = '12/1124.c'
source_filename = "12/1124.c"
target datalayout = "e-m:e-p270:32:32-p271:32:32-p272:64:64-i64:64-f80:128-n8:16:32:64-S128"
target triple = "x86_64-pc-linux-gnu"

@.str = private unnamed_addr constant [3 x i8] c"%d\00", align 1
@.str.1 = private unnamed_addr constant [4 x i8] c"%d\0A\00", align 1

; Function Attrs: noinline nounwind uwtable
define dso_local i32 @main() #0 {
  %1 = alloca i32, align 4
  %2 = alloca [16 x i32], align 16
  %3 = alloca i32, align 4
  %4 = alloca i32, align 4
  %5 = alloca i32, align 4
  %6 = alloca i32, align 4
  %7 = alloca i32, align 4
  %8 = alloca [16 x i32], align 16
  store i32 0, i32* %1, align 4
  store i32 0, i32* %4, align 4
  store i32 0, i32* %5, align 4
  br label %9

9:                                                ; preds = %0, %112
  store i32 0, i32* %3, align 4
  br label %10

10:                                               ; preds = %33, %9
  %11 = load i32, i32* %3, align 4
  %12 = icmp slt i32 %11, 16
  br i1 %12, label %13, label %36

13:                                               ; preds = %10
  %14 = load i32, i32* %3, align 4
  %15 = sext i32 %14 to i64
  %16 = getelementptr inbounds [16 x i32], [16 x i32]* %2, i64 0, i64 %15
  %17 = call i32 (i8*, ...) @__isoc99_scanf(i8* getelementptr inbounds ([3 x i8], [3 x i8]* @.str, i64 0, i64 0), i32* %16)
  %18 = load i32, i32* %5, align 4
  %19 = add nsw i32 %18, 1
  store i32 %19, i32* %5, align 4
  %20 = load i32, i32* %3, align 4
  %21 = sext i32 %20 to i64
  %22 = getelementptr inbounds [16 x i32], [16 x i32]* %2, i64 0, i64 %21
  %23 = load i32, i32* %22, align 4
  %24 = icmp eq i32 %23, 0
  br i1 %24, label %31, label %25

25:                                               ; preds = %13
  %26 = load i32, i32* %3, align 4
  %27 = sext i32 %26 to i64
  %28 = getelementptr inbounds [16 x i32], [16 x i32]* %2, i64 0, i64 %27
  %29 = load i32, i32* %28, align 4
  %30 = icmp eq i32 %29, -1
  br i1 %30, label %31, label %32

31:                                               ; preds = %25, %13
  br label %36

32:                                               ; preds = %25
  br label %33

33:                                               ; preds = %32
  %34 = load i32, i32* %3, align 4
  %35 = add nsw i32 %34, 1
  store i32 %35, i32* %3, align 4
  br label %10

36:                                               ; preds = %31, %10
  %37 = load i32, i32* %3, align 4
  %38 = sext i32 %37 to i64
  %39 = getelementptr inbounds [16 x i32], [16 x i32]* %2, i64 0, i64 %38
  %40 = load i32, i32* %39, align 4
  %41 = icmp eq i32 %40, -1
  br i1 %41, label %42, label %43

42:                                               ; preds = %36
  br label %116

43:                                               ; preds = %36
  store i32 0, i32* %7, align 4
  br label %44

44:                                               ; preds = %109, %43
  %45 = load i32, i32* %7, align 4
  %46 = load i32, i32* %5, align 4
  %47 = sub nsw i32 %46, 1
  %48 = icmp slt i32 %45, %47
  br i1 %48, label %49, label %112

49:                                               ; preds = %44
  %50 = load i32, i32* %7, align 4
  %51 = add nsw i32 %50, 1
  store i32 %51, i32* %6, align 4
  br label %52

52:                                               ; preds = %105, %49
  %53 = load i32, i32* %6, align 4
  %54 = load i32, i32* %5, align 4
  %55 = sub nsw i32 %54, 1
  %56 = icmp slt i32 %53, %55
  br i1 %56, label %57, label %108

57:                                               ; preds = %52
  %58 = load i32, i32* %7, align 4
  %59 = sext i32 %58 to i64
  %60 = getelementptr inbounds [16 x i32], [16 x i32]* %2, i64 0, i64 %59
  %61 = load i32, i32* %60, align 4
  %62 = load i32, i32* %6, align 4
  %63 = sext i32 %62 to i64
  %64 = getelementptr inbounds [16 x i32], [16 x i32]* %2, i64 0, i64 %63
  %65 = load i32, i32* %64, align 4
  %66 = sdiv i32 %61, %65
  %67 = icmp eq i32 %66, 2
  br i1 %67, label %68, label %79

68:                                               ; preds = %57
  %69 = load i32, i32* %7, align 4
  %70 = sext i32 %69 to i64
  %71 = getelementptr inbounds [16 x i32], [16 x i32]* %2, i64 0, i64 %70
  %72 = load i32, i32* %71, align 4
  %73 = load i32, i32* %6, align 4
  %74 = sext i32 %73 to i64
  %75 = getelementptr inbounds [16 x i32], [16 x i32]* %2, i64 0, i64 %74
  %76 = load i32, i32* %75, align 4
  %77 = srem i32 %72, %76
  %78 = icmp eq i32 %77, 0
  br i1 %78, label %101, label %79

79:                                               ; preds = %68, %57
  %80 = load i32, i32* %6, align 4
  %81 = sext i32 %80 to i64
  %82 = getelementptr inbounds [16 x i32], [16 x i32]* %2, i64 0, i64 %81
  %83 = load i32, i32* %82, align 4
  %84 = load i32, i32* %7, align 4
  %85 = sext i32 %84 to i64
  %86 = getelementptr inbounds [16 x i32], [16 x i32]* %2, i64 0, i64 %85
  %87 = load i32, i32* %86, align 4
  %88 = sdiv i32 %83, %87
  %89 = icmp eq i32 %88, 2
  br i1 %89, label %90, label %104

90:                                               ; preds = %79
  %91 = load i32, i32* %6, align 4
  %92 = sext i32 %91 to i64
  %93 = getelementptr inbounds [16 x i32], [16 x i32]* %2, i64 0, i64 %92
  %94 = load i32, i32* %93, align 4
  %95 = load i32, i32* %7, align 4
  %96 = sext i32 %95 to i64
  %97 = getelementptr inbounds [16 x i32], [16 x i32]* %2, i64 0, i64 %96
  %98 = load i32, i32* %97, align 4
  %99 = srem i32 %94, %98
  %100 = icmp eq i32 %99, 0
  br i1 %100, label %101, label %104

101:                                              ; preds = %90, %68
  %102 = load i32, i32* %4, align 4
  %103 = add nsw i32 %102, 1
  store i32 %103, i32* %4, align 4
  br label %104

104:                                              ; preds = %101, %90, %79
  br label %105

105:                                              ; preds = %104
  %106 = load i32, i32* %6, align 4
  %107 = add nsw i32 %106, 1
  store i32 %107, i32* %6, align 4
  br label %52

108:                                              ; preds = %52
  br label %109

109:                                              ; preds = %108
  %110 = load i32, i32* %7, align 4
  %111 = add nsw i32 %110, 1
  store i32 %111, i32* %7, align 4
  br label %44

112:                                              ; preds = %44
  %113 = load i32, i32* %4, align 4
  %114 = call i32 (i8*, ...) @printf(i8* getelementptr inbounds ([4 x i8], [4 x i8]* @.str.1, i64 0, i64 0), i32 %113)
  %115 = bitcast [16 x i32]* %8 to i8*
  call void @llvm.memset.p0i8.i64(i8* align 16 %115, i8 0, i64 64, i1 false)
  store i32 0, i32* %4, align 4
  store i32 0, i32* %5, align 4
  br label %9

116:                                              ; preds = %42
  ret i32 0
}

declare dso_local i32 @__isoc99_scanf(i8*, ...) #1

declare dso_local i32 @printf(i8*, ...) #1

; Function Attrs: argmemonly nounwind willreturn
declare void @llvm.memset.p0i8.i64(i8* nocapture writeonly, i8, i64, i1 immarg) #2


!llvm.module.flags = !{!0}
!llvm.ident = !{!1}

!0 = !{i32 1, !"wchar_size", i32 4}
!1 = !{!"clang version 10.0.0-4ubuntu1 "}
